target datalayout = "e-m:e-p270:32:32-p271:32:32-p272:64:64-i64:64-i128:128-f80:128-n8:16:32:64-S128"
target triple = "x86_64-pc-linux-gnu"

%struct.expert_field = type { i32, i32 }

@hf_eip_security_num_allow_cipher_suites = internal global i32 0, align 4
@hf_eip_security_allow_cipher_suite = internal global i32 0, align 4
@ei_mal_eip_security_allow_cipher_suites = internal global %struct.expert_field zeroinitializer, align 4

; Function Attrs: null_pointer_is_valid sspstrong uwtable
define internal i32 @dissect_eip_security_allow_cipher_suites(ptr noundef %0, ptr noundef %1, ptr noundef %2, ptr noundef %3, i32 noundef %4, i32 noundef %5) #0 {
  %7 = alloca i32, align 4
  %8 = alloca ptr, align 8
  %9 = alloca ptr, align 8
  %10 = alloca ptr, align 8
  %11 = alloca ptr, align 8
  %12 = alloca i32, align 4
  %13 = alloca i32, align 4
  %14 = alloca i32, align 4
  %15 = alloca i32, align 4
  %16 = alloca i32, align 4
  store ptr %0, ptr %8, align 8
  store ptr %1, ptr %9, align 8
  store ptr %2, ptr %10, align 8
  store ptr %3, ptr %11, align 8
  store i32 %4, ptr %12, align 4
  store i32 %5, ptr %13, align 4
  call void @llvm.lifetime.start.p0(i64 4, ptr %14) #14
  call void @llvm.lifetime.start.p0(i64 4, ptr %15) #14
  %17 = load i32, ptr %13, align 4
  %18 = icmp slt i32 %17, 1
  br i1 %18, label %19, label %24

19:                                               ; preds = %6
  %20 = load ptr, ptr %8, align 8
  %21 = load ptr, ptr %10, align 8
  %22 = call ptr @expert_add_info(ptr noundef %20, ptr noundef %21, ptr noundef @ei_mal_eip_security_allow_cipher_suites)
  %23 = load i32, ptr %13, align 4
  store i32 %23, ptr %7, align 4
  store i32 1, ptr %16, align 4
  br label %51

24:                                               ; preds = %6
  %25 = load ptr, ptr %9, align 8
  %26 = load i32, ptr @hf_eip_security_num_allow_cipher_suites, align 4
  %27 = load ptr, ptr %11, align 8
  %28 = load i32, ptr %12, align 4
  %29 = call ptr @proto_tree_add_item_ret_uint(ptr noundef %25, i32 noundef %26, ptr noundef %27, i32 noundef %28, i32 noundef 1, i32 noundef 0, ptr noundef %15)
  %30 = load i32, ptr %12, align 4
  %31 = add i32 %30, 1
  store i32 %31, ptr %12, align 4
  store i32 0, ptr %14, align 4
  br label %32

32:                                               ; preds = %44, %24
  %33 = load i32, ptr %14, align 4
  %34 = load i32, ptr %15, align 4
  %35 = icmp ult i32 %33, %34
  br i1 %35, label %36, label %47

36:                                               ; preds = %32
  %37 = load ptr, ptr %9, align 8
  %38 = load i32, ptr @hf_eip_security_allow_cipher_suite, align 4
  %39 = load ptr, ptr %11, align 8
  %40 = load i32, ptr %12, align 4
  %41 = call ptr @proto_tree_add_item(ptr noundef %37, i32 noundef %38, ptr noundef %39, i32 noundef %40, i32 noundef 2, i32 noundef 0)
  %42 = load i32, ptr %12, align 4
  %43 = add i32 %42, 2
  store i32 %43, ptr %12, align 4
  br label %44

44:                                               ; preds = %36
  %45 = load i32, ptr %14, align 4
  %46 = add i32 %45, 1
  store i32 %46, ptr %14, align 4
  br label %32, !llvm.loop !15

47:                                               ; preds = %32
  %48 = load i32, ptr %15, align 4
  %49 = mul i32 %48, 2
  %50 = add i32 %49, 1
  store i32 %50, ptr %7, align 4
  store i32 1, ptr %16, align 4
  br label %51

51:                                               ; preds = %47, %19
  call void @llvm.lifetime.end.p0(i64 4, ptr %15) #14
  call void @llvm.lifetime.end.p0(i64 4, ptr %14) #14
  %52 = load i32, ptr %7, align 4
  ret i32 %52
}