; Function Attrs: null_pointer_is_valid sspstrong uwtable
define internal i32 @dissect_eip_security_allow_cipher_suites(ptr noundef %0, ptr noundef %1, ptr noundef %2, ptr noundef %3, i32 noundef %4, i32 noundef %5) #0 {
  %7 = alloca i32, align 4
  call void @llvm.lifetime.start.p0(i64 4, ptr nonnull %7) #12
  %8 = icmp slt i32 %5, 1
  br i1 %8, label %9, label %11

9:                                                ; preds = %6
  %10 = tail call ptr @expert_add_info(ptr noundef %0, ptr noundef %2, ptr noundef nonnull @ei_mal_eip_security_allow_cipher_suites)
  br label %._crit_edge

11:                                               ; preds = %6
  %12 = load i32, ptr @hf_eip_security_num_allow_cipher_suites, align 4
  %13 = call ptr @proto_tree_add_item_ret_uint(ptr noundef %1, i32 noundef %12, ptr noundef %3, i32 noundef %4, i32 noundef 1, i32 noundef 0, ptr noundef nonnull %7)
  %14 = load i32, ptr %7, align 4
  %.not = icmp eq i32 %14, 0
  br i1 %.not, label %._crit_edge, label %.lr.ph.preheader

.lr.ph.preheader:                                 ; preds = %11
  %15 = add i32 %4, 1
  br label %.lr.ph

.lr.ph:                                           ; preds = %.lr.ph.preheader, %.lr.ph
  %.019 = phi i32 [ %19, %.lr.ph ], [ 0, %.lr.ph.preheader ]
  %.01518 = phi i32 [ %18, %.lr.ph ], [ %15, %.lr.ph.preheader ]
  %16 = load i32, ptr @hf_eip_security_allow_cipher_suite, align 4
  %17 = call ptr @proto_tree_add_item(ptr noundef %1, i32 noundef %16, ptr noundef %3, i32 noundef %.01518, i32 noundef 2, i32 noundef 0)
  %18 = add i32 %.01518, 2
  %19 = add nuw i32 %.019, 1
  %20 = load i32, ptr %7, align 4
  %21 = icmp ult i32 %19, %20
  br i1 %21, label %.lr.ph, label %._crit_edge.loopexit, !llvm.loop !13

._crit_edge.loopexit:                             ; preds = %.lr.ph
  %22 = shl i32 %20, 1
  %23 = or disjoint i32 %22, 1
  br label %._crit_edge

._crit_edge:                                      ; preds = %11, %._crit_edge.loopexit, %9
  %.014 = phi i32 [ %5, %9 ], [ 1, %11 ], [ %23, %._crit_edge.loopexit ]
  call void @llvm.lifetime.end.p0(i64 4, ptr nonnull %7) #12
  ret i32 %.014
}